_ZN3tvm8IRModuleC1Ev|tvm::IRModule::IRModule
_ZNK3tvm12IRModuleNode7GetAttrERKNSt7__cxx1112basic_stringIcSt11char_traitsIcESaIcEEENS_7runtime8OptionalIT_EE|tvm::IRModuleNode::GetAttr
_ZNK3tvm12IRModuleNode14HasNonzeroAttrERKNSt7__cxx1112basic_stringIcSt11char_traitsIcESaIcEEE|tvm::IRModuleNode::HasNonzeroAttr
_ZN3tvm12IRModuleNodeC1Ev|tvm::IRModuleNode::IRModuleNode
_ZN3tvm12IRModuleNode10VisitAttrsEPNS_11AttrVisitorE|tvm::IRModuleNode::VisitAttrs
_ZN3tvm5arith21IRMutatorWithAnalyzerC1EPNS0_8AnalyzerE|tvm::arith::IRMutatorWithAnalyzer::IRMutatorWithAnalyzer
_ZN3tvm5arith21IRVisitorWithAnalyzer8SimplifyERKNS_8PrimExprE|tvm::arith::IRVisitorWithAnalyzer::Simplify
_ZN3tvm5arith21IRMutatorWithAnalyzer10VisitExpr_EPKNS_3tir8CallNodeE|tvm::arith::IRMutatorWithAnalyzer::VisitExpr_
_ZN3tvm5arith21IRMutatorWithAnalyzer10VisitStmt_EPKNS_3tir7ForNodeE|tvm::arith::IRMutatorWithAnalyzer::VisitStmt_
_ZNK3tvm5arith21IRVisitorWithAnalyzer20ExtractRealConditionENS_8PrimExprE|tvm::arith::IRVisitorWithAnalyzer::ExtractRealCondition
_ZN3tvm5arith21IRVisitorWithAnalyzer10VisitExpr_EPKNS_3tir8CallNodeE|tvm::arith::IRVisitorWithAnalyzer::VisitExpr_
_ZN3tvm5arith21IRVisitorWithAnalyzer10VisitStmt_EPKNS_3tir7ForNodeE|tvm::arith::IRVisitorWithAnalyzer::VisitStmt_
_ZN3tvm8IRModule8FromExprERKNS_9RelayExprERKNS_7runtime3MapINS_9GlobalVarENS_8BaseFuncEvvEERKNS5_INS_13GlobalTypeVarENS_8TypeDataEvvEE|tvm::IRModule::FromExpr
_ZN3tvm8IRModule17FromExprInContextERKNS_9RelayExprERKNS_7runtime3MapINS_9GlobalVarENS_8BaseFuncEvvEERKNS5_INS_13GlobalTypeVarENS_8TypeDataEvvEESt13un5175574|tvm::IRModule::FromExprInContext
_ZN3tvm8IRModule8FromTextERKNS_7runtime6StringES4_|tvm::IRModule::FromText
_ZN3tvm8IRModuleC1ENS_7runtime3MapINS_9GlobalVarENS_8BaseFuncEvvEENS2_INS_13GlobalTypeVarENS_8TypeDataEvvEESt13unordered_setINS1_6StringESt4hashISA_ES11083656|tvm::IRModule::IRModule
_ZN3tvm12IRModuleNode3AddERKNS_9GlobalVarERKNS_8BaseFuncEb|tvm::IRModuleNode::Add
_ZN3tvm12IRModuleNode10AddTypeDefERKNS_13GlobalTypeVarERKNS_8TypeDataEb|tvm::IRModuleNode::AddTypeDef
_ZN3tvm12IRModuleNode19AddTypeDefUncheckedERKNS_13GlobalTypeVarERKNS_8TypeDataEb|tvm::IRModuleNode::AddTypeDefUnchecked
_ZN3tvm12IRModuleNode12AddUncheckedERKNS_9GlobalVarERKNS_8BaseFuncE|tvm::IRModuleNode::AddUnchecked
_ZNK3tvm12IRModuleNode20ContainGlobalTypeVarERKNS_7runtime6StringE|tvm::IRModuleNode::ContainGlobalTypeVar
_ZNK3tvm12IRModuleNode16ContainGlobalVarERKNS_7runtime6StringE|tvm::IRModuleNode::ContainGlobalVar
_ZNK3tvm12IRModuleNode14GetConstructorERKNS_7runtime6StringES4_|tvm::IRModuleNode::GetConstructor
_ZNK3tvm12IRModuleNode16GetGlobalTypeVarERKNS_7runtime6StringE|tvm::IRModuleNode::GetGlobalTypeVar
_ZNK3tvm12IRModuleNode17GetGlobalTypeVarsEv|tvm::IRModuleNode::GetGlobalTypeVars
_ZNK3tvm12IRModuleNode12GetGlobalVarERKNS_7runtime6StringE|tvm::IRModuleNode::GetGlobalVar
_ZNK3tvm12IRModuleNode13GetGlobalVarsEv|tvm::IRModuleNode::GetGlobalVars
_ZN3tvm12IRModuleNode6ImportERKNS_7runtime6StringE|tvm::IRModuleNode::Import
_ZN3tvm12IRModuleNode13ImportFromStdERKNS_7runtime6StringE|tvm::IRModuleNode::ImportFromStd
_ZNK3tvm12IRModuleNode7ImportsEv|tvm::IRModuleNode::Imports
_ZNK3tvm12IRModuleNode6LookupERKNS_9GlobalVarE|tvm::IRModuleNode::Lookup
_ZN3tvm12IRModuleNode9LookupTagEi|tvm::IRModuleNode::LookupTag
_ZNK3tvm12IRModuleNode13LookupTypeDefERKNS_13GlobalTypeVarE|tvm::IRModuleNode::LookupTypeDef
_ZN3tvm12IRModuleNode20RegisterConstructorsERKNS_13GlobalTypeVarERKNS_8TypeDataE|tvm::IRModuleNode::RegisterConstructors
_ZN3tvm12IRModuleNode6RemoveERKNS_9GlobalVarE|tvm::IRModuleNode::Remove
_ZNK3tvm12IRModuleNode12SEqualReduceEPKS0_NS_13SEqualReducerE|tvm::IRModuleNode::SEqualReduce
_ZNK3tvm12IRModuleNode11SHashReduceENS_12SHashReducerE|tvm::IRModuleNode::SHashReduce
_ZN3tvm12IRModuleNode11ShallowCopyEv|tvm::IRModuleNode::ShallowCopy
_ZNK3tvm12IRModuleNode20ShouldLinkParametersEv|tvm::IRModuleNode::ShouldLinkParameters
_ZN3tvm12IRModuleNode6UpdateERKNS_9GlobalVarERKNS_8BaseFuncE|tvm::IRModuleNode::Update
_ZN3tvm12IRModuleNode13UpdateTypeDefERKNS_13GlobalTypeVarERKNS_8TypeDataE|tvm::IRModuleNode::UpdateTypeDef
_ZN3tvm6script10ir_builder9IRBuilder7CurrentEv|tvm::script::ir_builder::IRBuilder::Current
_ZN3tvm6script10ir_builder9IRBuilder14EnterWithScopeEv|tvm::script::ir_builder::IRBuilder::EnterWithScope
_ZN3tvm6script10ir_builder9IRBuilder13ExitWithScopeEv|tvm::script::ir_builder::IRBuilder::ExitWithScope
_ZN3tvm6script10ir_builder9IRBuilderC1ENS_7runtime9ObjectPtrINS3_6ObjectEEE|tvm::script::ir_builder::IRBuilder::IRBuilder
_ZN3tvm6script10ir_builder9IRBuilder4NameENS_7runtime6StringET_|tvm::script::ir_builder::IRBuilder::Name
_ZN3tvm6script10ir_builder14IRBuilderFrame14EnterWithScopeEv|tvm::script::ir_builder::IRBuilderFrame::EnterWithScope
_ZN3tvm6script10ir_builder14IRBuilderFrame13ExitWithScopeEv|tvm::script::ir_builder::IRBuilderFrame::ExitWithScope
_ZN3tvm6script10ir_builder14IRBuilderFrameC1ENS_7runtime9ObjectPtrINS3_6ObjectEEE|tvm::script::ir_builder::IRBuilderFrame::IRBuilderFrame
_ZN3tvm6script10ir_builder14IRBuilderFrameD1Ev|tvm::script::ir_builder::IRBuilderFrame::~IRBuilderFrame
_ZN3tvm6script10ir_builder18IRBuilderFrameNode11AddCallbackENS_7runtime15TypedPackedFuncIFvvEEE|tvm::script::ir_builder::IRBuilderFrameNode::AddCallback
_ZN3tvm6script10ir_builder18IRBuilderFrameNode14EnterWithScopeEv|tvm::script::ir_builder::IRBuilderFrameNode::EnterWithScope
_ZN3tvm6script10ir_builder18IRBuilderFrameNode13ExitWithScopeEv|tvm::script::ir_builder::IRBuilderFrameNode::ExitWithScope
_ZN3tvm6script10ir_builder18IRBuilderFrameNode10VisitAttrsEPNS_11AttrVisitorE|tvm::script::ir_builder::IRBuilderFrameNode::VisitAttrs
_ZN3tvm6script10ir_builder18IRBuilderFrameNodeD1Ev|tvm::script::ir_builder::IRBuilderFrameNode::~IRBuilderFrameNode
_ZNK3tvm6script10ir_builder13IRBuilderNode9FindFrameEv|tvm::script::ir_builder::IRBuilderNode::FindFrame
_ZNK3tvm6script10ir_builder13IRBuilderNode3GetEv|tvm::script::ir_builder::IRBuilderNode::Get
_ZNK3tvm6script10ir_builder13IRBuilderNode12GetLastFrameEv|tvm::script::ir_builder::IRBuilderNode::GetLastFrame
_ZN3tvm6script10ir_builder13IRBuilderNode10VisitAttrsEPNS_11AttrVisitorE|tvm::script::ir_builder::IRBuilderNode::VisitAttrs
_ZN3tvm6script10ir_builder23ThreadLocalBuilderStackEv|tvm::script::ir_builder::ThreadLocalBuilderStack
_ZN3tvm6script7printer11IRDocsifierC1ENS_7runtime9ObjectPtrINS3_6ObjectEEE|tvm::script::printer::IRDocsifier::IRDocsifier
_ZN3tvm6script7printer11IRDocsifier6vtableEv|tvm::script::printer::IRDocsifier::vtable
_ZNK3tvm6script7printer15IRDocsifierNode5AsDocERKNS_12TracedObjectINS_7runtime9ObjectRefEEE|tvm::script::printer::IRDocsifierNode::AsDoc
_ZNK3tvm6script7printer15IRDocsifierNode9AsDocImplERKNS_12TracedObjectINS_7runtime9ObjectRefEEE|tvm::script::printer::IRDocsifierNode::AsDocImpl
_ZN3tvm6script7printer15IRDocsifierNode9AsExprDocERKNS_12TracedObjectINS_7runtime9ObjectRefEEE|tvm::script::printer::IRDocsifierNode::AsExprDoc
_ZNK3tvm6script7printer15IRDocsifierNode8GetFrameEv|tvm::script::printer::IRDocsifierNode::GetFrame
_ZN3tvm6script7printer15IRDocsifierNode10VisitAttrsEPNS_11AttrVisitorE|tvm::script::printer::IRDocsifierNode::VisitAttrs
_ZN3tvm6script7printer15IRDocsifierNode17WithDispatchTokenERKNS_7runtime6StringE|tvm::script::printer::IRDocsifierNode::WithDispatchToken
_ZN3tvm6script7printer15IRDocsifierNode9WithFrameERKNS1_5FrameE|tvm::script::printer::IRDocsifierNode::WithFrame
_ZN3tvm3tir12IRApplyVisit9VisitExprERKNS_8PrimExprE|tvm::tir::IRApplyVisit::VisitExpr
_ZN3tvm3tir12IRApplyVisit9VisitStmtERKNS0_4StmtE|tvm::tir::IRApplyVisit::VisitStmt
_ZN3tvm3tir12IRSubstitute10VisitExpr_EPKNS0_7VarNodeE|tvm::tir::IRSubstitute::VisitExpr_
_ZN3tvm3tir12IRSubstitute10VisitStmt_EPKNS0_9StoreNodeE|tvm::tir::IRSubstitute::VisitStmt_
_ZN3tvm3tir11IRTransformENS0_4StmtERKNS_7runtime10PackedFuncES5_NS2_8OptionalINS2_5ArrayINS2_6StringEvEEEE|tvm::tir::IRTransform
_ZN3tvm3tir13IRTransformer9VisitExprERKNS_8PrimExprE|tvm::tir::IRTransformer::VisitExpr
_ZN3tvm3tir13IRTransformer9VisitStmtERKNS0_4StmtE|tvm::tir::IRTransformer::VisitStmt
_ZN3tvm3tir12IRConvertSSA10VisitExpr_EPKNS0_7VarNodeE|tvm::tir::IRConvertSSA::VisitExpr_
_ZN3tvm3tir12IRConvertSSA10VisitStmt_EPKNS0_9StoreNodeE|tvm::tir::IRConvertSSA::VisitStmt_
